target datalayout = "e-m:e-p270:32:32-p271:32:32-p272:64:64-i64:64-i128:128-f80:128-n8:16:32:64-S128"
target triple = "x86_64-pc-linux-gnu"

%struct.part_row_data_t = type { ptr, i32, i32, ptr, i32 }
%struct.part_res_record = type { ptr, i16, ptr, i8, ptr }
%struct.part_record = type { i32, ptr, ptr, ptr, ptr, ptr, ptr, i32, ptr, ptr, ptr, ptr, ptr, i32, i64, i32, ptr, ptr, ptr, ptr, ptr, i32, i32, ptr, i32, i32, i64, i32, i32, i16, i32, i32, i32, i32, ptr, ptr, ptr, ptr, ptr, double, i16, i16, i16, i16, ptr, ptr, i16, i16, i32, i16, i32, i32, i32, i32, i16, ptr, ptr, ptr }
%struct.node_record = type { ptr, ptr, i16, i64, i64, ptr, ptr, ptr, i16, ptr, i16, i16, i32, i32, i64, ptr, i16, i16, ptr, ptr, ptr, ptr, ptr, i64, i64, ptr, ptr, ptr, ptr, i32, ptr, ptr, i64, i64, i32, ptr, i64, ptr, i32, i16, ptr, ptr, i32, ptr, i32, i8, ptr, i32, i16, i16, ptr, i16, i64, i16, i64, ptr, i64, i32, i16, i64, i16, ptr, i16, i64, ptr, i64, i16, i32, i16, ptr, ptr, ptr, i16, i32, i16, i16, i32, ptr, i16, i32 }

@plugin_type = external constant [0 x i8], align 1
@.str.10 = private unnamed_addr constant [33 x i8] c"%s: %s: part:%s rows:%u prio:%u \00", align 1
@__func__.part_data_dump_res = private unnamed_addr constant [19 x i8] c"part_data_dump_res\00", align 1
@.str.11 = private unnamed_addr constant [1 x i8] zeroinitializer, align 1
@node_record_count = external global i32, align 4
@node_record_table_ptr = external global ptr, align 8
@.str.12 = private unnamed_addr constant [21 x i8] c"%salloc_cores[%s]:%s\00", align 1
@.str.13 = private unnamed_addr constant [2 x i8] c",\00", align 1
@.str.14 = private unnamed_addr constant [32 x i8] c"%s: %s:  row:%u num_jobs:%u: %s\00", align 1

; Function Attrs: nounwind uwtable
define dso_local void @part_data_dump_res(ptr noundef %0) #0 {
  %2 = alloca ptr, align 8
  %3 = alloca i32, align 4
  %4 = alloca i32, align 4
  %5 = alloca ptr, align 8
  %6 = alloca i32, align 4
  %7 = alloca [64 x i8], align 16
  %8 = alloca ptr, align 8
  %9 = alloca ptr, align 8
  %10 = alloca i32, align 4
  store ptr %0, ptr %2, align 8
  call void @llvm.lifetime.start.p0(i64 4, ptr %3) #5
  call void @llvm.lifetime.start.p0(i64 4, ptr %4) #5
  call void @llvm.lifetime.start.p0(i64 8, ptr %5) #5
  br label %11

11:                                               ; preds = %1
  br label %12

12:                                               ; preds = %11
  %13 = call i32 @get_log_level()
  %14 = icmp sge i32 %13, 3
  br i1 %14, label %15, label %31

15:                                               ; preds = %12
  %16 = load ptr, ptr %2, align 8
  %17 = getelementptr inbounds nuw %struct.part_res_record, ptr %16, i32 0, i32 2
  %18 = load ptr, ptr %17, align 8
  %19 = getelementptr inbounds nuw %struct.part_record, ptr %18, i32 0, i32 34
  %20 = load ptr, ptr %19, align 8
  %21 = load ptr, ptr %2, align 8
  %22 = getelementptr inbounds nuw %struct.part_res_record, ptr %21, i32 0, i32 1
  %23 = load i16, ptr %22, align 8
  %24 = zext i16 %23 to i32
  %25 = load ptr, ptr %2, align 8
  %26 = getelementptr inbounds nuw %struct.part_res_record, ptr %25, i32 0, i32 2
  %27 = load ptr, ptr %26, align 8
  %28 = getelementptr inbounds nuw %struct.part_record, ptr %27, i32 0, i32 43
  %29 = load i16, ptr %28, align 2
  %30 = zext i16 %29 to i32
  call void (i32, ptr, ...) @log_var(i32 noundef 3, ptr noundef @.str.10, ptr noundef @plugin_type, ptr noundef @__func__.part_data_dump_res, ptr noundef %20, i32 noundef %24, i32 noundef %30)
  br label %31

31:                                               ; preds = %15, %12
  br label %32

32:                                               ; preds = %31
  br label %33

33:                                               ; preds = %32
  br label %34

34:                                               ; preds = %33
  br label %35

35:                                               ; preds = %34
  %36 = load ptr, ptr %2, align 8
  %37 = getelementptr inbounds nuw %struct.part_res_record, ptr %36, i32 0, i32 4
  %38 = load ptr, ptr %37, align 8
  %39 = icmp ne ptr %38, null
  br i1 %39, label %41, label %40

40:                                               ; preds = %35
  store i32 1, ptr %6, align 4
  br label %156

41:                                               ; preds = %35
  store i32 0, ptr %4, align 4
  br label %42

42:                                               ; preds = %152, %41
  %43 = load i32, ptr %4, align 4
  %44 = load ptr, ptr %2, align 8
  %45 = getelementptr inbounds nuw %struct.part_res_record, ptr %44, i32 0, i32 1
  %46 = load i16, ptr %45, align 8
  %47 = zext i16 %46 to i32
  %48 = icmp ult i32 %43, %47
  br i1 %48, label %49, label %155

49:                                               ; preds = %42
  call void @llvm.lifetime.start.p0(i64 64, ptr %7) #5
  call void @llvm.lifetime.start.p0(i64 8, ptr %8) #5
  store ptr @.str.11, ptr %8, align 8
  call void @llvm.lifetime.start.p0(i64 8, ptr %9) #5
  store ptr null, ptr %9, align 8
  call void @llvm.lifetime.start.p0(i64 4, ptr %10) #5
  store i32 4, ptr %10, align 4
  %50 = load ptr, ptr %2, align 8
  %51 = getelementptr inbounds nuw %struct.part_res_record, ptr %50, i32 0, i32 4
  %52 = load ptr, ptr %51, align 8
  %53 = load i32, ptr %4, align 4
  %54 = zext i32 %53 to i64
  %55 = getelementptr inbounds nuw %struct.part_row_data_t, ptr %52, i64 %54
  %56 = getelementptr inbounds nuw %struct.part_row_data_t, ptr %55, i32 0, i32 3
  %57 = load ptr, ptr %56, align 8
  %58 = icmp ne ptr %57, null
  br i1 %58, label %60, label %59

59:                                               ; preds = %49
  store i32 8, ptr %6, align 4
  br label %149

60:                                               ; preds = %49
  store i32 0, ptr %3, align 4
  br label %61

61:                                               ; preds = %125, %60
  %62 = load i32, ptr %3, align 4
  %63 = load i32, ptr @node_record_count, align 4
  %64 = icmp ult i32 %62, %63
  br i1 %64, label %65, label %128

65:                                               ; preds = %61
  %66 = load ptr, ptr %2, align 8
  %67 = getelementptr inbounds nuw %struct.part_res_record, ptr %66, i32 0, i32 4
  %68 = load ptr, ptr %67, align 8
  %69 = load i32, ptr %4, align 4
  %70 = zext i32 %69 to i64
  %71 = getelementptr inbounds nuw %struct.part_row_data_t, ptr %68, i64 %70
  %72 = getelementptr inbounds nuw %struct.part_row_data_t, ptr %71, i32 0, i32 3
  %73 = load ptr, ptr %72, align 8
  %74 = load i32, ptr %3, align 4
  %75 = zext i32 %74 to i64
  %76 = getelementptr inbounds nuw ptr, ptr %73, i64 %75
  %77 = load ptr, ptr %76, align 8
  %78 = icmp ne ptr %77, null
  br i1 %78, label %79, label %94

79:                                               ; preds = %65
  %80 = load ptr, ptr %2, align 8
  %81 = getelementptr inbounds nuw %struct.part_res_record, ptr %80, i32 0, i32 4
  %82 = load ptr, ptr %81, align 8
  %83 = load i32, ptr %4, align 4
  %84 = zext i32 %83 to i64
  %85 = getelementptr inbounds nuw %struct.part_row_data_t, ptr %82, i64 %84
  %86 = getelementptr inbounds nuw %struct.part_row_data_t, ptr %85, i32 0, i32 3
  %87 = load ptr, ptr %86, align 8
  %88 = load i32, ptr %3, align 4
  %89 = zext i32 %88 to i64
  %90 = getelementptr inbounds nuw ptr, ptr %87, i64 %89
  %91 = load ptr, ptr %90, align 8
  %92 = call i32 @bit_set_count(ptr noundef %91)
  %93 = icmp ne i32 %92, 0
  br i1 %93, label %95, label %94

94:                                               ; preds = %79, %65
  br label %125

95:                                               ; preds = %79
  %96 = load ptr, ptr @node_record_table_ptr, align 8
  %97 = load i32, ptr %3, align 4
  %98 = zext i32 %97 to i64
  %99 = getelementptr inbounds nuw ptr, ptr %96, i64 %98
  %100 = load ptr, ptr %99, align 8
  store ptr %100, ptr %5, align 8
  %101 = getelementptr inbounds [64 x i8], ptr %7, i64 0, i64 0
  %102 = load ptr, ptr %2, align 8
  %103 = getelementptr inbounds nuw %struct.part_res_record, ptr %102, i32 0, i32 4
  %104 = load ptr, ptr %103, align 8
  %105 = load i32, ptr %4, align 4
  %106 = zext i32 %105 to i64
  %107 = getelementptr inbounds nuw %struct.part_row_data_t, ptr %104, i64 %106
  %108 = getelementptr inbounds nuw %struct.part_row_data_t, ptr %107, i32 0, i32 3
  %109 = load ptr, ptr %108, align 8
  %110 = load i32, ptr %3, align 4
  %111 = zext i32 %110 to i64
  %112 = getelementptr inbounds nuw ptr, ptr %109, i64 %111
  %113 = load ptr, ptr %112, align 8
  %114 = call ptr @bit_fmt(ptr noundef %101, i32 noundef 64, ptr noundef %113)
  %115 = load ptr, ptr %8, align 8
  %116 = load ptr, ptr %5, align 8
  %117 = getelementptr inbounds nuw %struct.node_record, ptr %116, i32 0, i32 37
  %118 = load ptr, ptr %117, align 8
  %119 = getelementptr inbounds [64 x i8], ptr %7, i64 0, i64 0
  call void (ptr, ptr, ...) @_xstrfmtcat(ptr noundef %9, ptr noundef @.str.12, ptr noundef %115, ptr noundef %118, ptr noundef %119)
  store ptr @.str.13, ptr %8, align 8
  %120 = load i32, ptr %10, align 4
  %121 = add nsw i32 %120, -1
  store i32 %121, ptr %10, align 4
  %122 = icmp eq i32 %121, 0
  br i1 %122, label %123, label %124

123:                                              ; preds = %95
  br label %128

124:                                              ; preds = %95
  br label %125

125:                                              ; preds = %124, %94
  %126 = load i32, ptr %3, align 4
  %127 = add i32 %126, 1
  store i32 %127, ptr %3, align 4
  br label %61, !llvm.loop !21

128:                                              ; preds = %123, %61
  br label %129

129:                                              ; preds = %128
  br label %130

130:                                              ; preds = %129
  %131 = call i32 @get_log_level()
  %132 = icmp sge i32 %131, 3
  br i1 %132, label %133, label %144

133:                                              ; preds = %130
  %134 = load i32, ptr %4, align 4
  %135 = load ptr, ptr %2, align 8
  %136 = getelementptr inbounds nuw %struct.part_res_record, ptr %135, i32 0, i32 4
  %137 = load ptr, ptr %136, align 8
  %138 = load i32, ptr %4, align 4
  %139 = zext i32 %138 to i64
  %140 = getelementptr inbounds nuw %struct.part_row_data_t, ptr %137, i64 %139
  %141 = getelementptr inbounds nuw %struct.part_row_data_t, ptr %140, i32 0, i32 2
  %142 = load i32, ptr %141, align 4
  %143 = load ptr, ptr %9, align 8
  call void (i32, ptr, ...) @log_var(i32 noundef 3, ptr noundef @.str.14, ptr noundef @plugin_type, ptr noundef @__func__.part_data_dump_res, i32 noundef %134, i32 noundef %142, ptr noundef %143)
  br label %144

144:                                              ; preds = %133, %130
  br label %145

145:                                              ; preds = %144
  br label %146

146:                                              ; preds = %145
  br label %147

147:                                              ; preds = %146
  br label %148

148:                                              ; preds = %147
  call void @slurm_xfree(ptr noundef %9)
  store i32 0, ptr %6, align 4
  br label %149

149:                                              ; preds = %148, %59
  call void @llvm.lifetime.end.p0(i64 4, ptr %10) #5
  call void @llvm.lifetime.end.p0(i64 8, ptr %9) #5
  call void @llvm.lifetime.end.p0(i64 8, ptr %8) #5
  call void @llvm.lifetime.end.p0(i64 64, ptr %7) #5
  %150 = load i32, ptr %6, align 4
  switch i32 %150, label %159 [
    i32 0, label %151
    i32 8, label %152
  ]

151:                                              ; preds = %149
  br label %152

152:                                              ; preds = %151, %149
  %153 = load i32, ptr %4, align 4
  %154 = add i32 %153, 1
  store i32 %154, ptr %4, align 4
  br label %42, !llvm.loop !22

155:                                              ; preds = %42
  store i32 0, ptr %6, align 4
  br label %156

156:                                              ; preds = %155, %40
  call void @llvm.lifetime.end.p0(i64 8, ptr %5) #5
  call void @llvm.lifetime.end.p0(i64 4, ptr %4) #5
  call void @llvm.lifetime.end.p0(i64 4, ptr %3) #5
  %157 = load i32, ptr %6, align 4
  switch i32 %157, label %159 [
    i32 0, label %158
    i32 1, label %158
  ]

158:                                              ; preds = %156, %156
  ret void

159:                                              ; preds = %156, %149
  unreachable
}