; Function Attrs: nounwind uwtable
define dso_local void @part_data_dump_res(ptr noundef readonly captures(none) %0) local_unnamed_addr #0 {
  %2 = alloca [64 x i8], align 16
  %3 = alloca ptr, align 8
  %4 = tail call i32 @get_log_level() #8
  %5 = icmp sgt i32 %4, 2
  br i1 %5, label %6, label %17

6:                                                ; preds = %1
  %7 = getelementptr inbounds nuw i8, ptr %0, i64 16
  %8 = load ptr, ptr %7, align 8
  %9 = getelementptr inbounds nuw i8, ptr %8, i64 232
  %10 = load ptr, ptr %9, align 8
  %11 = getelementptr inbounds nuw i8, ptr %0, i64 8
  %12 = load i16, ptr %11, align 8
  %13 = zext i16 %12 to i32
  %14 = getelementptr inbounds nuw i8, ptr %8, i64 286
  %15 = load i16, ptr %14, align 2
  %16 = zext i16 %15 to i32
  tail call void (i32, ptr, ...) @log_var(i32 noundef 3, ptr noundef nonnull @.str.10, ptr noundef nonnull @plugin_type, ptr noundef nonnull @__func__.part_data_dump_res, ptr noundef %10, i32 noundef %13, i32 noundef %16) #8
  br label %17

17:                                               ; preds = %6, %1
  %18 = getelementptr inbounds nuw i8, ptr %0, i64 32
  %19 = load ptr, ptr %18, align 8
  %.not = icmp eq ptr %19, null
  br i1 %.not, label %.loopexit, label %.preheader35

.preheader35:                                     ; preds = %17
  %20 = getelementptr inbounds nuw i8, ptr %0, i64 8
  %21 = load i16, ptr %20, align 8
  %.not43 = icmp eq i16 %21, 0
  br i1 %.not43, label %.loopexit, label %.lr.ph42

.lr.ph42:                                         ; preds = %.preheader35, %61
  %22 = phi i16 [ %62, %61 ], [ %21, %.preheader35 ]
  %indvars.iv46 = phi i64 [ %indvars.iv.next47, %61 ], [ 0, %.preheader35 ]
  call void @llvm.lifetime.start.p0(i64 64, ptr nonnull %2) #8
  call void @llvm.lifetime.start.p0(i64 8, ptr nonnull %3) #8
  store ptr null, ptr %3, align 8
  %23 = load ptr, ptr %18, align 8
  %24 = getelementptr inbounds nuw %struct.part_row_data_t, ptr %23, i64 %indvars.iv46, i32 3
  %25 = load ptr, ptr %24, align 8
  %.not32 = icmp eq ptr %25, null
  br i1 %.not32, label %61, label %.preheader

.preheader:                                       ; preds = %.lr.ph42
  %26 = load i32, ptr @node_record_count, align 4
  %.not44 = icmp eq i32 %26, 0
  br i1 %.not44, label %._crit_edge, label %.lr.ph

.lr.ph:                                           ; preds = %.preheader, %48
  %indvars.iv = phi i64 [ %indvars.iv.next, %48 ], [ 0, %.preheader ]
  %.038 = phi i32 [ %.1, %48 ], [ 4, %.preheader ]
  %.02637 = phi ptr [ %.127, %48 ], [ @.str.11, %.preheader ]
  %27 = load ptr, ptr %18, align 8
  %28 = getelementptr inbounds nuw %struct.part_row_data_t, ptr %27, i64 %indvars.iv46, i32 3
  %29 = load ptr, ptr %28, align 8
  %30 = getelementptr inbounds nuw ptr, ptr %29, i64 %indvars.iv
  %31 = load ptr, ptr %30, align 8
  %.not33 = icmp eq ptr %31, null
  br i1 %.not33, label %48, label %32

32:                                               ; preds = %.lr.ph
  %33 = call i32 @bit_set_count(ptr noundef nonnull %31) #8
  %.not34 = icmp eq i32 %33, 0
  br i1 %.not34, label %48, label %34

34:                                               ; preds = %32
  %35 = load ptr, ptr @node_record_table_ptr, align 8
  %36 = getelementptr inbounds nuw ptr, ptr %35, i64 %indvars.iv
  %37 = load ptr, ptr %36, align 8
  %38 = load ptr, ptr %18, align 8
  %39 = getelementptr inbounds nuw %struct.part_row_data_t, ptr %38, i64 %indvars.iv46, i32 3
  %40 = load ptr, ptr %39, align 8
  %41 = getelementptr inbounds nuw ptr, ptr %40, i64 %indvars.iv
  %42 = load ptr, ptr %41, align 8
  %43 = call ptr @bit_fmt(ptr noundef nonnull %2, i32 noundef 64, ptr noundef %42) #8
  %44 = getelementptr inbounds nuw i8, ptr %37, i64 272
  %45 = load ptr, ptr %44, align 8
  call void (ptr, ptr, ...) @_xstrfmtcat(ptr noundef nonnull %3, ptr noundef nonnull @.str.12, ptr noundef %.02637, ptr noundef %45, ptr noundef nonnull %2) #8
  %46 = add nsw i32 %.038, -1
  %47 = icmp eq i32 %46, 0
  br i1 %47, label %._crit_edge, label %48

48:                                               ; preds = %34, %.lr.ph, %32
  %.127 = phi ptr [ @.str.13, %34 ], [ %.02637, %32 ], [ %.02637, %.lr.ph ]
  %.1 = phi i32 [ %46, %34 ], [ %.038, %32 ], [ %.038, %.lr.ph ]
  %indvars.iv.next = add nuw nsw i64 %indvars.iv, 1
  %49 = load i32, ptr @node_record_count, align 4
  %50 = zext i32 %49 to i64
  %51 = icmp samesign ult i64 %indvars.iv.next, %50
  br i1 %51, label %.lr.ph, label %._crit_edge, !llvm.loop !24

._crit_edge:                                      ; preds = %48, %34, %.preheader
  %52 = call i32 @get_log_level() #8
  %53 = icmp sgt i32 %52, 2
  br i1 %53, label %54, label %60

54:                                               ; preds = %._crit_edge
  %55 = load ptr, ptr %18, align 8
  %56 = getelementptr inbounds nuw %struct.part_row_data_t, ptr %55, i64 %indvars.iv46, i32 2
  %57 = load i32, ptr %56, align 4
  %58 = load ptr, ptr %3, align 8
  %59 = trunc nuw nsw i64 %indvars.iv46 to i32
  call void (i32, ptr, ...) @log_var(i32 noundef 3, ptr noundef nonnull @.str.14, ptr noundef nonnull @plugin_type, ptr noundef nonnull @__func__.part_data_dump_res, i32 noundef %59, i32 noundef %57, ptr noundef %58) #8
  br label %60

60:                                               ; preds = %54, %._crit_edge
  call void @slurm_xfree(ptr noundef nonnull %3) #8
  %.pre = load i16, ptr %20, align 8
  br label %61

61:                                               ; preds = %.lr.ph42, %60
  %62 = phi i16 [ %22, %.lr.ph42 ], [ %.pre, %60 ]
  call void @llvm.lifetime.end.p0(i64 8, ptr nonnull %3) #8
  call void @llvm.lifetime.end.p0(i64 64, ptr nonnull %2) #8
  %indvars.iv.next47 = add nuw nsw i64 %indvars.iv46, 1
  %63 = zext i16 %62 to i64
  %64 = icmp samesign ult i64 %indvars.iv.next47, %63
  br i1 %64, label %.lr.ph42, label %.loopexit, !llvm.loop !25

.loopexit:                                        ; preds = %61, %.preheader35, %17
  ret void
}